target datalayout = "e-m:e-p270:32:32-p271:32:32-p272:64:64-i64:64-i128:128-f80:128-n8:16:32:64-S128"
target triple = "x86_64-unknown-linux-gnu"

%"class.facebook::velox::type::Parser" = type { ptr, %"class.facebook::velox::type::Parser::stack", ptr }
%"class.facebook::velox::type::Parser::stack" = type { %"class.std::vector" }
%"class.std::vector" = type { %"struct.std::_Vector_base" }
%"struct.std::_Vector_base" = type { %"struct.std::_Vector_base<facebook::velox::type::Parser::stack_symbol_type, std::allocator<facebook::velox::type::Parser::stack_symbol_type>>::_Vector_impl" }
%"struct.std::_Vector_base<facebook::velox::type::Parser::stack_symbol_type, std::allocator<facebook::velox::type::Parser::stack_symbol_type>>::_Vector_impl" = type { %"struct.std::_Vector_base<facebook::velox::type::Parser::stack_symbol_type, std::allocator<facebook::velox::type::Parser::stack_symbol_type>>::_Vector_impl_data" }
%"struct.std::_Vector_base<facebook::velox::type::Parser::stack_symbol_type, std::allocator<facebook::velox::type::Parser::stack_symbol_type>>::_Vector_impl_data" = type { ptr, ptr, ptr }
%"struct.facebook::velox::type::Parser::by_state" = type { i8 }
%"struct.facebook::velox::type::Parser::basic_symbol" = type { %"struct.facebook::velox::type::Parser::by_state", %"class.facebook::velox::type::Parser::value_type" }
%"class.facebook::velox::type::Parser::value_type" = type { %union.anon.0 }
%union.anon.0 = type { x86_fp80, [32 x i8] }
%"struct.facebook::velox::type::Parser::stack_symbol_type" = type { %"struct.facebook::velox::type::Parser::basic_symbol" }
%"class.__gnu_cxx::__normal_iterator.28" = type { ptr }

@_ZN8facebook5velox4type6Parser17stack_symbol_typeC1Ev = unnamed_addr alias void (ptr), ptr @_ZN8facebook5velox4type6Parser17stack_symbol_typeC2Ev
@_ZN8facebook5velox4type6Parser17stack_symbol_typeC1EOS3_ = unnamed_addr alias void (ptr, ptr), ptr @_ZN8facebook5velox4type6Parser17stack_symbol_typeC2EOS3_

; Function Attrs: mustprogress nounwind uwtable
define linkonce_odr noundef nonnull align 16 dereferenceable(64) ptr @_ZNK9__gnu_cxx17__normal_iteratorIPN8facebook5velox4type6Parser17stack_symbol_typeESt6vectorIS5_SaIS5_EEEdeEv(ptr noundef nonnull align 8 dereferenceable(8) %this) #4 comdat align 2 {
entry:
  %this.addr = alloca ptr, align 8
  store ptr %this, ptr %this.addr, align 8
  %this1 = load ptr, ptr %this.addr, align 8
  %_M_current = getelementptr inbounds %"class.__gnu_cxx::__normal_iterator.28", ptr %this1, i32 0, i32 0
  %0 = load ptr, ptr %_M_current, align 8
  ret ptr %0
}

; Function Attrs: mustprogress nounwind uwtable
define linkonce_odr ptr @_ZNK9__gnu_cxx17__normal_iteratorIPN8facebook5velox4type6Parser17stack_symbol_typeESt6vectorIS5_SaIS5_EEEmiEl(ptr noundef nonnull align 8 dereferenceable(8) %this, i64 noundef %__n) #4 comdat align 2 {
entry:
  %retval = alloca %"class.__gnu_cxx::__normal_iterator.28", align 8
  %this.addr = alloca ptr, align 8
  %__n.addr = alloca i64, align 8
  %ref.tmp = alloca ptr, align 8
  store ptr %this, ptr %this.addr, align 8
  store i64 %__n, ptr %__n.addr, align 8
  %this1 = load ptr, ptr %this.addr, align 8
  %_M_current = getelementptr inbounds %"class.__gnu_cxx::__normal_iterator.28", ptr %this1, i32 0, i32 0
  %0 = load ptr, ptr %_M_current, align 8
  %1 = load i64, ptr %__n.addr, align 8
  %idx.neg = sub i64 0, %1
  %add.ptr = getelementptr inbounds %"struct.facebook::velox::type::Parser::stack_symbol_type", ptr %0, i64 %idx.neg
  store ptr %add.ptr, ptr %ref.tmp, align 8
  call void @_ZN9__gnu_cxx17__normal_iteratorIPN8facebook5velox4type6Parser17stack_symbol_typeESt6vectorIS5_SaIS5_EEEC2ERKS6_(ptr noundef nonnull align 8 dereferenceable(8) %retval, ptr noundef nonnull align 8 dereferenceable(8) %ref.tmp) #3
  %coerce.dive = getelementptr inbounds %"class.__gnu_cxx::__normal_iterator.28", ptr %retval, i32 0, i32 0
  %2 = load ptr, ptr %coerce.dive, align 8
  ret ptr %2
}

; Function Attrs: mustprogress nounwind uwtable
define linkonce_odr void @_ZN9__gnu_cxx17__normal_iteratorIPN8facebook5velox4type6Parser17stack_symbol_typeESt6vectorIS5_SaIS5_EEEC2ERKS6_(ptr noundef nonnull align 8 dereferenceable(8) %this, ptr noundef nonnull align 8 dereferenceable(8) %__i) unnamed_addr #4 comdat align 2 {
entry:
  %this.addr = alloca ptr, align 8
  %__i.addr = alloca ptr, align 8
  store ptr %this, ptr %this.addr, align 8
  store ptr %__i, ptr %__i.addr, align 8
  %this1 = load ptr, ptr %this.addr, align 8
  %_M_current = getelementptr inbounds %"class.__gnu_cxx::__normal_iterator.28", ptr %this1, i32 0, i32 0
  %0 = load ptr, ptr %__i.addr, align 8
  %1 = load ptr, ptr %0, align 8
  store ptr %1, ptr %_M_current, align 8
  ret void
}

; Function Attrs: mustprogress uwtable
define linkonce_odr void @_ZNSt15__new_allocatorIN8facebook5velox4type6Parser17stack_symbol_typeEE9constructIS4_JS4_EEEvPT_DpOT0_(ptr noundef nonnull align 1 dereferenceable(1) %this, ptr noundef %__p, ptr noundef nonnull align 16 dereferenceable(64) %__args) #6 comdat align 2 {
entry:
  %this.addr = alloca ptr, align 8
  %__p.addr = alloca ptr, align 8
  %__args.addr = alloca ptr, align 8
  store ptr %this, ptr %this.addr, align 8
  store ptr %__p, ptr %__p.addr, align 8
  store ptr %__args, ptr %__args.addr, align 8
  %0 = load ptr, ptr %__p.addr, align 8
  %1 = load ptr, ptr %__args.addr, align 8
  call void @_ZN8facebook5velox4type6Parser17stack_symbol_typeC1EOS3_(ptr noundef nonnull align 16 dereferenceable(64) %0, ptr noundef nonnull align 16 dereferenceable(64) %1)
  ret void
}

; Function Attrs: mustprogress nounwind uwtable
define linkonce_odr noundef i64 @_ZNKSt6vectorIN8facebook5velox4type6Parser17stack_symbol_typeESaIS4_EE4sizeEv(ptr noundef nonnull align 8 dereferenceable(24) %this) #4 comdat align 2 {
entry:
  %this.addr = alloca ptr, align 8
  store ptr %this, ptr %this.addr, align 8
  %this1 = load ptr, ptr %this.addr, align 8
  %_M_impl = getelementptr inbounds %"struct.std::_Vector_base", ptr %this1, i32 0, i32 0
  %_M_finish = getelementptr inbounds %"struct.std::_Vector_base<facebook::velox::type::Parser::stack_symbol_type, std::allocator<facebook::velox::type::Parser::stack_symbol_type>>::_Vector_impl_data", ptr %_M_impl, i32 0, i32 1
  %0 = load ptr, ptr %_M_finish, align 8
  %_M_impl2 = getelementptr inbounds %"struct.std::_Vector_base", ptr %this1, i32 0, i32 0
  %_M_start = getelementptr inbounds %"struct.std::_Vector_base<facebook::velox::type::Parser::stack_symbol_type, std::allocator<facebook::velox::type::Parser::stack_symbol_type>>::_Vector_impl_data", ptr %_M_impl2, i32 0, i32 0
  %1 = load ptr, ptr %_M_start, align 8
  %sub.ptr.lhs.cast = ptrtoint ptr %0 to i64
  %sub.ptr.rhs.cast = ptrtoint ptr %1 to i64
  %sub.ptr.sub = sub i64 %sub.ptr.lhs.cast, %sub.ptr.rhs.cast
  %sub.ptr.div = sdiv exact i64 %sub.ptr.sub, 64
  ret i64 %sub.ptr.div
}

; Function Attrs: mustprogress nounwind uwtable
define linkonce_odr void @_ZN8facebook5velox4type6Parser10value_typeD2Ev(ptr noundef nonnull align 16 dereferenceable(48) %this) unnamed_addr #4 comdat align 2 {
entry:
  %this.addr = alloca ptr, align 8
  store ptr %this, ptr %this.addr, align 8
  ret void
}

; Function Attrs: mustprogress nounwind uwtable
define linkonce_odr noundef nonnull align 16 dereferenceable(64) ptr @_ZNSt6vectorIN8facebook5velox4type6Parser17stack_symbol_typeESaIS4_EE4backEv(ptr noundef nonnull align 8 dereferenceable(24) %this) #4 comdat align 2 {
entry:
  %this.addr = alloca ptr, align 8
  %ref.tmp = alloca %"class.__gnu_cxx::__normal_iterator.28", align 8
  %ref.tmp2 = alloca %"class.__gnu_cxx::__normal_iterator.28", align 8
  store ptr %this, ptr %this.addr, align 8
  %this1 = load ptr, ptr %this.addr, align 8
  %call = call ptr @_ZNSt6vectorIN8facebook5velox4type6Parser17stack_symbol_typeESaIS4_EE3endEv(ptr noundef nonnull align 8 dereferenceable(24) %this1) #3
  %coerce.dive = getelementptr inbounds %"class.__gnu_cxx::__normal_iterator.28", ptr %ref.tmp2, i32 0, i32 0
  store ptr %call, ptr %coerce.dive, align 8
  %call3 = call ptr @_ZNK9__gnu_cxx17__normal_iteratorIPN8facebook5velox4type6Parser17stack_symbol_typeESt6vectorIS5_SaIS5_EEEmiEl(ptr noundef nonnull align 8 dereferenceable(8) %ref.tmp2, i64 noundef 1) #3
  %coerce.dive4 = getelementptr inbounds %"class.__gnu_cxx::__normal_iterator.28", ptr %ref.tmp, i32 0, i32 0
  store ptr %call3, ptr %coerce.dive4, align 8
  %call5 = call noundef nonnull align 16 dereferenceable(64) ptr @_ZNK9__gnu_cxx17__normal_iteratorIPN8facebook5velox4type6Parser17stack_symbol_typeESt6vectorIS5_SaIS5_EEEdeEv(ptr noundef nonnull align 8 dereferenceable(8) %ref.tmp) #3
  ret ptr %call5
}

; Function Attrs: mustprogress nounwind uwtable
define linkonce_odr ptr @_ZNSt6vectorIN8facebook5velox4type6Parser17stack_symbol_typeESaIS4_EE3endEv(ptr noundef nonnull align 8 dereferenceable(24) %this) #4 comdat align 2 {
entry:
  %retval = alloca %"class.__gnu_cxx::__normal_iterator.28", align 8
  %this.addr = alloca ptr, align 8
  store ptr %this, ptr %this.addr, align 8
  %this1 = load ptr, ptr %this.addr, align 8
  %_M_impl = getelementptr inbounds %"struct.std::_Vector_base", ptr %this1, i32 0, i32 0
  %_M_finish = getelementptr inbounds %"struct.std::_Vector_base<facebook::velox::type::Parser::stack_symbol_type, std::allocator<facebook::velox::type::Parser::stack_symbol_type>>::_Vector_impl_data", ptr %_M_impl, i32 0, i32 1
  call void @_ZN9__gnu_cxx17__normal_iteratorIPN8facebook5velox4type6Parser17stack_symbol_typeESt6vectorIS5_SaIS5_EEEC2ERKS6_(ptr noundef nonnull align 8 dereferenceable(8) %retval, ptr noundef nonnull align 8 dereferenceable(8) %_M_finish) #3
  %coerce.dive = getelementptr inbounds %"class.__gnu_cxx::__normal_iterator.28", ptr %retval, i32 0, i32 0
  %0 = load ptr, ptr %coerce.dive, align 8
  ret ptr %0
}

; Function Attrs: mustprogress uwtable
define linkonce_odr void @_ZNSt16allocator_traitsISaIN8facebook5velox4type6Parser17stack_symbol_typeEEE9constructIS4_JS4_EEEvRS5_PT_DpOT0_(ptr noundef nonnull align 1 dereferenceable(1) %__a, ptr noundef %__p, ptr noundef nonnull align 16 dereferenceable(64) %__args) #6 comdat align 2 {
entry:
  %__a.addr = alloca ptr, align 8
  %__p.addr = alloca ptr, align 8
  %__args.addr = alloca ptr, align 8
  store ptr %__a, ptr %__a.addr, align 8
  store ptr %__p, ptr %__p.addr, align 8
  store ptr %__args, ptr %__args.addr, align 8
  %0 = load ptr, ptr %__a.addr, align 8
  %1 = load ptr, ptr %__p.addr, align 8
  %2 = load ptr, ptr %__args.addr, align 8
  call void @_ZNSt15__new_allocatorIN8facebook5velox4type6Parser17stack_symbol_typeEE9constructIS4_JS4_EEEvPT_DpOT0_(ptr noundef nonnull align 1 dereferenceable(1) %0, ptr noundef %1, ptr noundef nonnull align 16 dereferenceable(64) %2)
  ret void
}

; Function Attrs: mustprogress nounwind uwtable
define linkonce_odr noundef nonnull align 16 dereferenceable(64) ptr @_ZNSt6vectorIN8facebook5velox4type6Parser17stack_symbol_typeESaIS4_EEixEm(ptr noundef nonnull align 8 dereferenceable(24) %this, i64 noundef %__n) #4 comdat align 2 {
entry:
  %this.addr = alloca ptr, align 8
  %__n.addr = alloca i64, align 8
  store ptr %this, ptr %this.addr, align 8
  store i64 %__n, ptr %__n.addr, align 8
  %this1 = load ptr, ptr %this.addr, align 8
  %_M_impl = getelementptr inbounds %"struct.std::_Vector_base", ptr %this1, i32 0, i32 0
  %_M_start = getelementptr inbounds %"struct.std::_Vector_base<facebook::velox::type::Parser::stack_symbol_type, std::allocator<facebook::velox::type::Parser::stack_symbol_type>>::_Vector_impl_data", ptr %_M_impl, i32 0, i32 0
  %0 = load ptr, ptr %_M_start, align 8
  %1 = load i64, ptr %__n.addr, align 8
  %add.ptr = getelementptr inbounds %"struct.facebook::velox::type::Parser::stack_symbol_type", ptr %0, i64 %1
  ret ptr %add.ptr
}

; Function Attrs: mustprogress nounwind uwtable
define linkonce_odr noundef i64 @_ZNK8facebook5velox4type6Parser5stackINS2_17stack_symbol_typeESt6vectorIS4_SaIS4_EEE4sizeEv(ptr noundef nonnull align 8 dereferenceable(24) %this) #4 comdat align 2 {
entry:
  %this.addr = alloca ptr, align 8
  store ptr %this, ptr %this.addr, align 8
  %this1 = load ptr, ptr %this.addr, align 8
  %seq_ = getelementptr inbounds %"class.facebook::velox::type::Parser::stack", ptr %this1, i32 0, i32 0
  %call = call noundef i64 @_ZNKSt6vectorIN8facebook5velox4type6Parser17stack_symbol_typeESaIS4_EE4sizeEv(ptr noundef nonnull align 8 dereferenceable(24) %seq_) #3
  ret i64 %call
}

; Function Attrs: mustprogress nounwind uwtable
define linkonce_odr void @_ZN8facebook5velox4type6Parser12basic_symbolINS2_8by_stateEED2Ev(ptr noundef nonnull align 16 dereferenceable(64) %this) unnamed_addr #4 comdat align 2 {
entry:
  %this.addr = alloca ptr, align 8
  store ptr %this, ptr %this.addr, align 8
  %this1 = load ptr, ptr %this.addr, align 8
  call void @_ZN8facebook5velox4type6Parser12basic_symbolINS2_8by_stateEE5clearEv(ptr noundef nonnull align 16 dereferenceable(64) %this1) #3
  %value = getelementptr inbounds %"struct.facebook::velox::type::Parser::basic_symbol", ptr %this1, i32 0, i32 1
  call void @_ZN8facebook5velox4type6Parser10value_typeD2Ev(ptr noundef nonnull align 16 dereferenceable(48) %value) #3
  ret void
}

; Function Attrs: mustprogress uwtable
define linkonce_odr noundef nonnull align 16 dereferenceable(64) ptr @_ZNSt6vectorIN8facebook5velox4type6Parser17stack_symbol_typeESaIS4_EE12emplace_backIJS4_EEERS4_DpOT_(ptr noundef nonnull align 8 dereferenceable(24) %this, ptr noundef nonnull align 16 dereferenceable(64) %__args) #6 comdat align 2 {
entry:
  %this.addr = alloca ptr, align 8
  %__args.addr = alloca ptr, align 8
  %agg.tmp = alloca %"class.__gnu_cxx::__normal_iterator.28", align 8
  store ptr %this, ptr %this.addr, align 8
  store ptr %__args, ptr %__args.addr, align 8
  %this1 = load ptr, ptr %this.addr, align 8
  %_M_impl = getelementptr inbounds %"struct.std::_Vector_base", ptr %this1, i32 0, i32 0
  %_M_finish = getelementptr inbounds %"struct.std::_Vector_base<facebook::velox::type::Parser::stack_symbol_type, std::allocator<facebook::velox::type::Parser::stack_symbol_type>>::_Vector_impl_data", ptr %_M_impl, i32 0, i32 1
  %0 = load ptr, ptr %_M_finish, align 8
  %_M_impl2 = getelementptr inbounds %"struct.std::_Vector_base", ptr %this1, i32 0, i32 0
  %_M_end_of_storage = getelementptr inbounds %"struct.std::_Vector_base<facebook::velox::type::Parser::stack_symbol_type, std::allocator<facebook::velox::type::Parser::stack_symbol_type>>::_Vector_impl_data", ptr %_M_impl2, i32 0, i32 2
  %1 = load ptr, ptr %_M_end_of_storage, align 8
  %cmp = icmp ne ptr %0, %1
  br i1 %cmp, label %if.then, label %if.else

if.then:                                          ; preds = %entry
  %_M_impl3 = getelementptr inbounds %"struct.std::_Vector_base", ptr %this1, i32 0, i32 0
  %_M_impl4 = getelementptr inbounds %"struct.std::_Vector_base", ptr %this1, i32 0, i32 0
  %_M_finish5 = getelementptr inbounds %"struct.std::_Vector_base<facebook::velox::type::Parser::stack_symbol_type, std::allocator<facebook::velox::type::Parser::stack_symbol_type>>::_Vector_impl_data", ptr %_M_impl4, i32 0, i32 1
  %2 = load ptr, ptr %_M_finish5, align 8
  %3 = load ptr, ptr %__args.addr, align 8
  call void @_ZNSt16allocator_traitsISaIN8facebook5velox4type6Parser17stack_symbol_typeEEE9constructIS4_JS4_EEEvRS5_PT_DpOT0_(ptr noundef nonnull align 1 dereferenceable(1) %_M_impl3, ptr noundef %2, ptr noundef nonnull align 16 dereferenceable(64) %3)
  %_M_impl6 = getelementptr inbounds %"struct.std::_Vector_base", ptr %this1, i32 0, i32 0
  %_M_finish7 = getelementptr inbounds %"struct.std::_Vector_base<facebook::velox::type::Parser::stack_symbol_type, std::allocator<facebook::velox::type::Parser::stack_symbol_type>>::_Vector_impl_data", ptr %_M_impl6, i32 0, i32 1
  %4 = load ptr, ptr %_M_finish7, align 8
  %incdec.ptr = getelementptr inbounds %"struct.facebook::velox::type::Parser::stack_symbol_type", ptr %4, i32 1
  store ptr %incdec.ptr, ptr %_M_finish7, align 8
  br label %if.end

if.else:                                          ; preds = %entry
  %call = call ptr @_ZNSt6vectorIN8facebook5velox4type6Parser17stack_symbol_typeESaIS4_EE3endEv(ptr noundef nonnull align 8 dereferenceable(24) %this1) #3
  %coerce.dive = getelementptr inbounds %"class.__gnu_cxx::__normal_iterator.28", ptr %agg.tmp, i32 0, i32 0
  store ptr %call, ptr %coerce.dive, align 8
  %5 = load ptr, ptr %__args.addr, align 8
  %coerce.dive8 = getelementptr inbounds %"class.__gnu_cxx::__normal_iterator.28", ptr %agg.tmp, i32 0, i32 0
  %6 = load ptr, ptr %coerce.dive8, align 8
  call void @_ZNSt6vectorIN8facebook5velox4type6Parser17stack_symbol_typeESaIS4_EE17_M_realloc_insertIJS4_EEEvN9__gnu_cxx17__normal_iteratorIPS4_S6_EEDpOT_(ptr noundef nonnull align 8 dereferenceable(24) %this1, ptr %6, ptr noundef nonnull align 16 dereferenceable(64) %5)
  br label %if.end

if.end:                                           ; preds = %if.else, %if.then
  %call9 = call noundef nonnull align 16 dereferenceable(64) ptr @_ZNSt6vectorIN8facebook5velox4type6Parser17stack_symbol_typeESaIS4_EE4backEv(ptr noundef nonnull align 8 dereferenceable(24) %this1) #3
  ret ptr %call9
}

; Function Attrs: mustprogress nounwind uwtable
define linkonce_odr noundef nonnull align 16 dereferenceable(64) ptr @_ZN8facebook5velox4type6Parser5stackINS2_17stack_symbol_typeESt6vectorIS4_SaIS4_EEEixEl(ptr noundef nonnull align 8 dereferenceable(24) %this, i64 noundef %i) #4 comdat align 2 {
entry:
  %this.addr = alloca ptr, align 8
  %i.addr = alloca i64, align 8
  store ptr %this, ptr %this.addr, align 8
  store i64 %i, ptr %i.addr, align 8
  %this1 = load ptr, ptr %this.addr, align 8
  %seq_ = getelementptr inbounds %"class.facebook::velox::type::Parser::stack", ptr %this1, i32 0, i32 0
  %call = call noundef i64 @_ZNK8facebook5velox4type6Parser5stackINS2_17stack_symbol_typeESt6vectorIS4_SaIS4_EEE4sizeEv(ptr noundef nonnull align 8 dereferenceable(24) %this1) #3
  %sub = sub nsw i64 %call, 1
  %0 = load i64, ptr %i.addr, align 8
  %sub2 = sub nsw i64 %sub, %0
  %call3 = call noundef nonnull align 16 dereferenceable(64) ptr @_ZNSt6vectorIN8facebook5velox4type6Parser17stack_symbol_typeESaIS4_EEixEm(ptr noundef nonnull align 8 dereferenceable(24) %seq_, i64 noundef %sub2) #3
  ret ptr %call3
}

; Function Attrs: mustprogress nounwind uwtable
define linkonce_odr void @_ZN8facebook5velox4type6Parser17stack_symbol_typeD2Ev(ptr noundef nonnull align 16 dereferenceable(64) %this) unnamed_addr #4 comdat align 2 {
entry:
  %this.addr = alloca ptr, align 8
  store ptr %this, ptr %this.addr, align 8
  %this1 = load ptr, ptr %this.addr, align 8
  call void @_ZN8facebook5velox4type6Parser12basic_symbolINS2_8by_stateEED2Ev(ptr noundef nonnull align 16 dereferenceable(64) %this1) #3
  ret void
}

; Function Attrs: mustprogress uwtable
define linkonce_odr void @_ZNSt6vectorIN8facebook5velox4type6Parser17stack_symbol_typeESaIS4_EE9push_backEOS4_(ptr noundef nonnull align 8 dereferenceable(24) %this, ptr noundef nonnull align 16 dereferenceable(64) %__x) #6 comdat align 2 {
entry:
  %this.addr = alloca ptr, align 8
  %__x.addr = alloca ptr, align 8
  store ptr %this, ptr %this.addr, align 8
  store ptr %__x, ptr %__x.addr, align 8
  %this1 = load ptr, ptr %this.addr, align 8
  %0 = load ptr, ptr %__x.addr, align 8
  %call = call noundef nonnull align 16 dereferenceable(64) ptr @_ZNSt6vectorIN8facebook5velox4type6Parser17stack_symbol_typeESaIS4_EE12emplace_backIJS4_EEERS4_DpOT_(ptr noundef nonnull align 8 dereferenceable(24) %this1, ptr noundef nonnull align 16 dereferenceable(64) %0)
  ret void
}

; Function Attrs: mustprogress uwtable
define linkonce_odr void @_ZN8facebook5velox4type6Parser5stackINS2_17stack_symbol_typeESt6vectorIS4_SaIS4_EEE4pushEOS4_(ptr noundef nonnull align 8 dereferenceable(24) %this, ptr noundef nonnull align 16 dereferenceable(64) %t) #6 comdat align 2 personality ptr @__gxx_personality_v0 {
entry:
  %this.addr = alloca ptr, align 8
  %t.addr = alloca ptr, align 8
  %ref.tmp = alloca %"struct.facebook::velox::type::Parser::stack_symbol_type", align 16
  %exn.slot = alloca ptr, align 8
  %ehselector.slot = alloca i32, align 4
  store ptr %this, ptr %this.addr, align 8
  store ptr %t, ptr %t.addr, align 8
  %this1 = load ptr, ptr %this.addr, align 8
  %seq_ = getelementptr inbounds %"class.facebook::velox::type::Parser::stack", ptr %this1, i32 0, i32 0
  call void @_ZN8facebook5velox4type6Parser17stack_symbol_typeC1Ev(ptr noundef nonnull align 16 dereferenceable(64) %ref.tmp)
  invoke void @_ZNSt6vectorIN8facebook5velox4type6Parser17stack_symbol_typeESaIS4_EE9push_backEOS4_(ptr noundef nonnull align 8 dereferenceable(24) %seq_, ptr noundef nonnull align 16 dereferenceable(64) %ref.tmp)
          to label %invoke.cont unwind label %lpad

invoke.cont:                                      ; preds = %entry
  call void @_ZN8facebook5velox4type6Parser17stack_symbol_typeD2Ev(ptr noundef nonnull align 16 dereferenceable(64) %ref.tmp) #3
  %call = call noundef nonnull align 16 dereferenceable(64) ptr @_ZN8facebook5velox4type6Parser5stackINS2_17stack_symbol_typeESt6vectorIS4_SaIS4_EEEixEl(ptr noundef nonnull align 8 dereferenceable(24) %this1, i64 noundef 0)
  %0 = load ptr, ptr %t.addr, align 8
  call void @_ZN8facebook5velox4type6Parser12basic_symbolINS2_8by_stateEE4moveERS5_(ptr noundef nonnull align 16 dereferenceable(64) %call, ptr noundef nonnull align 16 dereferenceable(64) %0)
  ret void

lpad:                                             ; preds = %entry
  %1 = landingpad { ptr, i32 }
          cleanup
  %2 = extractvalue { ptr, i32 } %1, 0
  store ptr %2, ptr %exn.slot, align 8
  %3 = extractvalue { ptr, i32 } %1, 1
  store i32 %3, ptr %ehselector.slot, align 4
  call void @_ZN8facebook5velox4type6Parser17stack_symbol_typeD2Ev(ptr noundef nonnull align 16 dereferenceable(64) %ref.tmp) #3
  br label %eh.resume

eh.resume:                                        ; preds = %lpad
  %exn = load ptr, ptr %exn.slot, align 8
  %sel = load i32, ptr %ehselector.slot, align 4
  %lpad.val = insertvalue { ptr, i32 } poison, ptr %exn, 0
  %lpad.val2 = insertvalue { ptr, i32 } %lpad.val, i32 %sel, 1
  resume { ptr, i32 } %lpad.val2
}

; Function Attrs: mustprogress uwtable
define void @_ZN8facebook5velox4type6Parser7yypush_EPKcONS2_17stack_symbol_typeE(ptr noundef nonnull align 8 dereferenceable(40) %this, ptr noundef %m, ptr noundef nonnull align 16 dereferenceable(64) %sym) #6 align 2 {
entry:
  %this.addr = alloca ptr, align 8
  %m.addr = alloca ptr, align 8
  %sym.addr = alloca ptr, align 8
  store ptr %this, ptr %this.addr, align 8
  store ptr %m, ptr %m.addr, align 8
  store ptr %sym, ptr %sym.addr, align 8
  %this1 = load ptr, ptr %this.addr, align 8
  %0 = load ptr, ptr %m.addr, align 8
  %tobool = icmp ne ptr %0, null
  br i1 %tobool, label %if.then, label %if.end

if.then:                                          ; preds = %entry
  br label %if.end

if.end:                                           ; preds = %if.then, %entry
  %yystack_ = getelementptr inbounds %"class.facebook::velox::type::Parser", ptr %this1, i32 0, i32 1
  %1 = load ptr, ptr %sym.addr, align 8
  call void @_ZN8facebook5velox4type6Parser5stackINS2_17stack_symbol_typeESt6vectorIS4_SaIS4_EEE4pushEOS4_(ptr noundef nonnull align 8 dereferenceable(24) %yystack_, ptr noundef nonnull align 16 dereferenceable(64) %1)
  ret void
}