; Function Attrs: mustprogress uwtable
define void @_ZN8facebook5velox4type6Parser7yypush_EPKcONS2_17stack_symbol_typeE(ptr noundef nonnull align 8 dereferenceable(40) %this, ptr nocapture noundef readnone %m, ptr noundef nonnull align 16 dereferenceable(64) %sym) local_unnamed_addr #9 align 2 personality ptr @__gxx_personality_v0 {
entry:
  %ref.tmp.i = alloca %"struct.facebook::velox::type::Parser::stack_symbol_type", align 16
  %yystack_ = getelementptr inbounds i8, ptr %this, i64 8
  call void @llvm.lifetime.start.p0(i64 64, ptr nonnull %ref.tmp.i)
  call void @_ZN8facebook5velox4type6Parser17stack_symbol_typeC1Ev(ptr noundef nonnull align 16 dereferenceable(64) %ref.tmp.i)
  %_M_finish.i.i.i = getelementptr inbounds i8, ptr %this, i64 16
  %0 = load ptr, ptr %_M_finish.i.i.i, align 8
  %_M_end_of_storage.i.i.i = getelementptr inbounds i8, ptr %this, i64 24
  %1 = load ptr, ptr %_M_end_of_storage.i.i.i, align 8
  %cmp.not.i.i.i = icmp eq ptr %0, %1
  br i1 %cmp.not.i.i.i, label %if.else.i.i.i, label %if.then.i.i.i

if.then.i.i.i:                                    ; preds = %entry
  invoke void @_ZN8facebook5velox4type6Parser17stack_symbol_typeC1EOS3_(ptr noundef nonnull align 16 dereferenceable(64) %0, ptr noundef nonnull align 16 dereferenceable(64) %ref.tmp.i)
          to label %.noexc.i unwind label %lpad.i

.noexc.i:                                         ; preds = %if.then.i.i.i
  %2 = load ptr, ptr %_M_finish.i.i.i, align 8
  %incdec.ptr.i.i.i = getelementptr inbounds i8, ptr %2, i64 64
  store ptr %incdec.ptr.i.i.i, ptr %_M_finish.i.i.i, align 8
  br label %_ZN8facebook5velox4type6Parser5stackINS2_17stack_symbol_typeESt6vectorIS4_SaIS4_EEE4pushEOS4_.exit

if.else.i.i.i:                                    ; preds = %entry
  invoke void @_ZNSt6vectorIN8facebook5velox4type6Parser17stack_symbol_typeESaIS4_EE17_M_realloc_insertIJS4_EEEvN9__gnu_cxx17__normal_iteratorIPS4_S6_EEDpOT_(ptr noundef nonnull align 8 dereferenceable(24) %yystack_, ptr %0, ptr noundef nonnull align 16 dereferenceable(64) %ref.tmp.i)
          to label %_ZN8facebook5velox4type6Parser5stackINS2_17stack_symbol_typeESt6vectorIS4_SaIS4_EEE4pushEOS4_.exit unwind label %lpad.i

lpad.i:                                           ; preds = %if.else.i.i.i, %if.then.i.i.i
  %3 = landingpad { ptr, i32 }
          cleanup
  call void @_ZN8facebook5velox4type6Parser12basic_symbolINS2_8by_stateEE5clearEv(ptr noundef nonnull align 16 dereferenceable(64) %ref.tmp.i) #25
  resume { ptr, i32 } %3

_ZN8facebook5velox4type6Parser5stackINS2_17stack_symbol_typeESt6vectorIS4_SaIS4_EEE4pushEOS4_.exit: ; preds = %.noexc.i, %if.else.i.i.i
  call void @_ZN8facebook5velox4type6Parser12basic_symbolINS2_8by_stateEE5clearEv(ptr noundef nonnull align 16 dereferenceable(64) %ref.tmp.i) #25
  %4 = load ptr, ptr %_M_finish.i.i.i, align 8
  %5 = load ptr, ptr %yystack_, align 8
  %sub.ptr.lhs.cast.i.i.i.i = ptrtoint ptr %4 to i64
  %sub.ptr.rhs.cast.i.i.i.i = ptrtoint ptr %5 to i64
  %sub.ptr.sub.i.i.i.i = sub i64 %sub.ptr.lhs.cast.i.i.i.i, %sub.ptr.rhs.cast.i.i.i.i
  %6 = getelementptr i8, ptr %5, i64 %sub.ptr.sub.i.i.i.i
  %add.ptr.i.i.i = getelementptr i8, ptr %6, i64 -64
  call void @_ZN8facebook5velox4type6Parser12basic_symbolINS2_8by_stateEE4moveERS5_(ptr noundef nonnull align 16 dereferenceable(64) %add.ptr.i.i.i, ptr noundef nonnull align 16 dereferenceable(64) %sym)
  call void @llvm.lifetime.end.p0(i64 64, ptr nonnull %ref.tmp.i)
  ret void
}